; Function Attrs: nounwind uwtable
define ptr @l_Lean_Elab_FixedParamPerms_fixedArePrefix___boxed(ptr noundef %0) local_unnamed_addr #1 {
  %2 = getelementptr inbounds nuw i8, ptr %0, i64 16
  %3 = load ptr, ptr %2, align 8, !tbaa !9
  %4 = getelementptr i8, ptr %3, i64 8
  %.val.i = load i64, ptr %4, align 8, !tbaa !12
  %.mask.i = and i64 %.val.i, 9223372036854775807
  %.not.i3 = icmp eq i64 %.mask.i, 0
  br i1 %.not.i3, label %l_Lean_Elab_FixedParamPerms_fixedArePrefix.exit, label %lean_dec.exit.i

lean_dec.exit.i:                                  ; preds = %1
  %5 = tail call zeroext i8 @l_Array_anyMUnsafe_any___at_Lean_Elab_FixedParamPerms_fixedArePrefix___spec__3(ptr noundef nonnull readonly %0, ptr noundef nonnull %3, i64 noundef 0, i64 noundef %.mask.i)
  %..i = shl nuw nsw i8 %5, 1
  %6 = xor i8 %..i, 3
  %7 = zext nneg i8 %6 to i64
  br label %l_Lean_Elab_FixedParamPerms_fixedArePrefix.exit

l_Lean_Elab_FixedParamPerms_fixedArePrefix.exit:  ; preds = %1, %lean_dec.exit.i
  %.0.i = phi i64 [ %7, %lean_dec.exit.i ], [ 3, %1 ]
  %8 = ptrtoint ptr %0 to i64
  %9 = and i64 %8, 1
  %.not = icmp eq i64 %9, 0
  br i1 %.not, label %10, label %lean_dec.exit

10:                                               ; preds = %l_Lean_Elab_FixedParamPerms_fixedArePrefix.exit
  %11 = load i32, ptr %0, align 4, !tbaa !4
  %12 = icmp sgt i32 %11, 1
  br i1 %12, label %13, label %15, !prof !11

13:                                               ; preds = %10
  %14 = add nsw i32 %11, -1
  store i32 %14, ptr %0, align 4, !tbaa !4
  br label %lean_dec.exit

15:                                               ; preds = %10
  %.not.i = icmp eq i32 %11, 0
  br i1 %.not.i, label %lean_dec.exit, label %16

16:                                               ; preds = %15
  tail call void @lean_dec_ref_cold(ptr noundef nonnull %0) #5
  br label %lean_dec.exit

lean_dec.exit:                                    ; preds = %16, %15, %13, %l_Lean_Elab_FixedParamPerms_fixedArePrefix.exit
  %17 = inttoptr i64 %.0.i to ptr
  ret ptr %17
}